target datalayout = "e-m:e-p270:32:32-p271:32:32-p272:64:64-i64:64-i128:128-f80:128-n8:16:32:64-S128"
target triple = "x86_64-pc-linux-gnu"

@XML_FILE = global ptr null, align 8
@XML_PREFIX = internal global [256 x i8] zeroinitializer, align 16
@.str.54 = private unnamed_addr constant [52 x i8] c"\09<testcase classname=\22%s:%s\22 name=\22%s:%s\22 time=\22%s\22\00", align 1
@.str.55 = private unnamed_addr constant [53 x i8] c">\0A\09\09<failure type=\22err\22 message=\22%s\22/>\0A\09</testcase>\0A\00", align 1
@.str.56 = private unnamed_addr constant [4 x i8] c"/>\0A\00", align 1

; Function Attrs: nounwind uwtable
define i32 @ctest_xml_testcase(ptr noundef %0, ptr noundef %1, ptr noundef %2, ptr noundef %3) #0 {
  %5 = alloca i32, align 4
  %6 = alloca ptr, align 8
  %7 = alloca ptr, align 8
  %8 = alloca ptr, align 8
  %9 = alloca ptr, align 8
  store ptr %0, ptr %6, align 8, !tbaa !15
  store ptr %1, ptr %7, align 8, !tbaa !15
  store ptr %2, ptr %8, align 8, !tbaa !15
  store ptr %3, ptr %9, align 8, !tbaa !15
  %10 = load ptr, ptr @XML_FILE, align 8, !tbaa !27
  %11 = icmp ne ptr %10, null
  br i1 %11, label %13, label %12

12:                                               ; preds = %4
  store i32 0, ptr %5, align 4
  br label %29

13:                                               ; preds = %4
  %14 = load ptr, ptr @XML_FILE, align 8, !tbaa !27
  %15 = load ptr, ptr %6, align 8, !tbaa !15
  %16 = load ptr, ptr %7, align 8, !tbaa !15
  %17 = load ptr, ptr %8, align 8, !tbaa !15
  %18 = call i32 (ptr, ptr, ...) @fprintf(ptr noundef %14, ptr noundef @.str.54, ptr noundef @XML_PREFIX, ptr noundef %15, ptr noundef @XML_PREFIX, ptr noundef %16, ptr noundef %17) #12
  %19 = load ptr, ptr %9, align 8, !tbaa !15
  %20 = icmp ne ptr %19, null
  br i1 %20, label %21, label %25

21:                                               ; preds = %13
  %22 = load ptr, ptr @XML_FILE, align 8, !tbaa !27
  %23 = load ptr, ptr %9, align 8, !tbaa !15
  %24 = call i32 (ptr, ptr, ...) @fprintf(ptr noundef %22, ptr noundef @.str.55, ptr noundef %23) #12
  br label %28

25:                                               ; preds = %13
  %26 = load ptr, ptr @XML_FILE, align 8, !tbaa !27
  %27 = call i32 (ptr, ptr, ...) @fprintf(ptr noundef %26, ptr noundef @.str.56) #12
  br label %28

28:                                               ; preds = %25, %21
  store i32 0, ptr %5, align 4
  br label %29

29:                                               ; preds = %28, %12
  %30 = load i32, ptr %5, align 4
  ret i32 %30
}