; Function Attrs: nofree nounwind uwtable
define noundef i32 @ctest_xml_testcase(ptr noundef %0, ptr noundef %1, ptr noundef %2, ptr noundef %3) local_unnamed_addr #2 {
  %5 = load ptr, ptr @XML_FILE, align 8, !tbaa !16
  %.not = icmp eq ptr %5, null
  br i1 %.not, label %13, label %6

6:                                                ; preds = %4
  %7 = tail call i32 (ptr, ptr, ...) @fprintf(ptr noundef nonnull %5, ptr noundef nonnull @.str.54, ptr noundef nonnull @XML_PREFIX, ptr noundef %0, ptr noundef nonnull @XML_PREFIX, ptr noundef %1, ptr noundef %2) #23
  %.not6 = icmp eq ptr %3, null
  %8 = load ptr, ptr @XML_FILE, align 8, !tbaa !16
  br i1 %.not6, label %11, label %9

9:                                                ; preds = %6
  %10 = tail call i32 (ptr, ptr, ...) @fprintf(ptr noundef %8, ptr noundef nonnull @.str.55, ptr noundef nonnull %3) #23
  br label %13

11:                                               ; preds = %6
  %12 = tail call i64 @fwrite(ptr nonnull @.str.56, i64 3, i64 1, ptr %8)
  br label %13

13:                                               ; preds = %9, %11, %4
  ret i32 0
}